target datalayout = "e-m:e-p270:32:32-p271:32:32-p272:64:64-i64:64-i128:128-f80:128-n8:16:32:64-S128"
target triple = "x86_64-pc-linux-gnu"

%struct._object = type { %union.anon, ptr }
%union.anon = type { i64 }
%struct._typeobject = type { %struct.PyVarObject, ptr, i64, i64, ptr, i64, ptr, ptr, ptr, ptr, ptr, ptr, ptr, ptr, ptr, ptr, ptr, ptr, ptr, i64, ptr, ptr, ptr, ptr, i64, ptr, ptr, ptr, ptr, ptr, ptr, ptr, ptr, ptr, i64, ptr, ptr, ptr, ptr, ptr, ptr, ptr, ptr, ptr, ptr, ptr, i32, ptr, ptr, i8, i16 }
%struct.PyVarObject = type { %struct._object, i64 }

@.str.9 = private unnamed_addr constant [11 x i8] c"textdomain\00", align 1
@_Py_NoneStruct = external global %struct._object, align 8
@PyExc_ValueError = external global ptr, align 8
@.str.14 = private unnamed_addr constant [24 x i8] c"embedded null character\00", align 1
@.str.16 = private unnamed_addr constant [12 x i8] c"str or None\00", align 1
@.str.40 = private unnamed_addr constant [9 x i8] c"argument\00", align 1
@PyExc_OSError = external global ptr, align 8

; Function Attrs: nounwind uwtable
define internal ptr @_locale_textdomain_impl(ptr noundef %0, ptr noundef %1) #0 {
  %3 = alloca ptr, align 8
  %4 = alloca ptr, align 8
  %5 = alloca ptr, align 8
  store ptr %0, ptr %4, align 8, !tbaa !4
  store ptr %1, ptr %5, align 8, !tbaa !20
  %6 = load ptr, ptr %5, align 8, !tbaa !20
  %7 = call ptr @textdomain(ptr noundef %6) #9
  store ptr %7, ptr %5, align 8, !tbaa !20
  %8 = load ptr, ptr %5, align 8, !tbaa !20
  %9 = icmp ne ptr %8, null
  br i1 %9, label %13, label %10

10:                                               ; preds = %2
  %11 = load ptr, ptr @PyExc_OSError, align 8, !tbaa !4
  %12 = call ptr @PyErr_SetFromErrno(ptr noundef %11)
  store ptr null, ptr %3, align 8
  br label %16

13:                                               ; preds = %2
  %14 = load ptr, ptr %5, align 8, !tbaa !20
  %15 = call ptr @PyUnicode_DecodeLocale(ptr noundef %14, ptr noundef null)
  store ptr %15, ptr %3, align 8
  br label %16

16:                                               ; preds = %13, %10
  %17 = load ptr, ptr %3, align 8
  ret ptr %17
}

; Function Attrs: inlinehint nounwind uwtable
define internal i32 @PyType_HasFeature(ptr noundef %0, i64 noundef %1) #3 {
  %3 = alloca ptr, align 8
  %4 = alloca i64, align 8
  %5 = alloca i64, align 8
  store ptr %0, ptr %3, align 8, !tbaa !22
  store i64 %1, ptr %4, align 8, !tbaa !18
  call void @llvm.lifetime.start.p0(i64 8, ptr %5) #9
  %6 = load ptr, ptr %3, align 8, !tbaa !22
  %7 = getelementptr inbounds nuw %struct._typeobject, ptr %6, i32 0, i32 19
  %8 = load i64, ptr %7, align 8, !tbaa !24
  store i64 %8, ptr %5, align 8, !tbaa !18
  %9 = load i64, ptr %5, align 8, !tbaa !18
  %10 = load i64, ptr %4, align 8, !tbaa !18
  %11 = and i64 %9, %10
  %12 = icmp ne i64 %11, 0
  %13 = zext i1 %12 to i32
  call void @llvm.lifetime.end.p0(i64 8, ptr %5) #9
  ret i32 %13
}

; Function Attrs: inlinehint nounwind uwtable
define internal ptr @_Py_TYPE(ptr noundef %0) #3 {
  %2 = alloca ptr, align 8
  store ptr %0, ptr %2, align 8, !tbaa !4
  %3 = load ptr, ptr %2, align 8, !tbaa !4
  %4 = getelementptr inbounds nuw %struct._object, ptr %3, i32 0, i32 1
  %5 = load ptr, ptr %4, align 8, !tbaa !32
  ret ptr %5
}

; Function Attrs: nounwind uwtable
define internal ptr @_locale_textdomain(ptr noundef %0, ptr noundef %1) #0 {
  %3 = alloca ptr, align 8
  %4 = alloca ptr, align 8
  %5 = alloca ptr, align 8
  %6 = alloca ptr, align 8
  %7 = alloca ptr, align 8
  %8 = alloca i64, align 8
  %9 = alloca i32, align 4
  store ptr %0, ptr %4, align 8, !tbaa !4
  store ptr %1, ptr %5, align 8, !tbaa !4
  call void @llvm.lifetime.start.p0(i64 8, ptr %6) #9
  store ptr null, ptr %6, align 8, !tbaa !4
  call void @llvm.lifetime.start.p0(i64 8, ptr %7) #9
  %10 = load ptr, ptr %5, align 8, !tbaa !4
  %11 = icmp eq ptr %10, @_Py_NoneStruct
  br i1 %11, label %12, label %13

12:                                               ; preds = %2
  store ptr null, ptr %7, align 8, !tbaa !20
  br label %38

13:                                               ; preds = %2
  %14 = load ptr, ptr %5, align 8, !tbaa !4
  %15 = call ptr @_Py_TYPE(ptr noundef %14)
  %16 = call i32 @PyType_HasFeature(ptr noundef %15, i64 noundef 268435456)
  %17 = icmp ne i32 %16, 0
  br i1 %17, label %18, label %35

18:                                               ; preds = %13
  call void @llvm.lifetime.start.p0(i64 8, ptr %8) #9
  %19 = load ptr, ptr %5, align 8, !tbaa !4
  %20 = call ptr @PyUnicode_AsUTF8AndSize(ptr noundef %19, ptr noundef %8)
  store ptr %20, ptr %7, align 8, !tbaa !20
  %21 = load ptr, ptr %7, align 8, !tbaa !20
  %22 = icmp eq ptr %21, null
  br i1 %22, label %23, label %24

23:                                               ; preds = %18
  store i32 2, ptr %9, align 4
  br label %32

24:                                               ; preds = %18
  %25 = load ptr, ptr %7, align 8, !tbaa !20
  %26 = call i64 @strlen(ptr noundef %25) #10
  %27 = load i64, ptr %8, align 8, !tbaa !18
  %28 = icmp ne i64 %26, %27
  br i1 %28, label %29, label %31

29:                                               ; preds = %24
  %30 = load ptr, ptr @PyExc_ValueError, align 8, !tbaa !4
  call void @PyErr_SetString(ptr noundef %30, ptr noundef @.str.14)
  store i32 2, ptr %9, align 4
  br label %32

31:                                               ; preds = %24
  store i32 0, ptr %9, align 4
  br label %32

32:                                               ; preds = %29, %23, %31
  call void @llvm.lifetime.end.p0(i64 8, ptr %8) #9
  %33 = load i32, ptr %9, align 4
  switch i32 %33, label %44 [
    i32 0, label %34
    i32 2, label %42
  ]

34:                                               ; preds = %32
  br label %37

35:                                               ; preds = %13
  %36 = load ptr, ptr %5, align 8, !tbaa !4
  call void @_PyArg_BadArgument(ptr noundef @.str.9, ptr noundef @.str.40, ptr noundef @.str.16, ptr noundef %36)
  br label %42

37:                                               ; preds = %34
  br label %38

38:                                               ; preds = %37, %12
  %39 = load ptr, ptr %4, align 8, !tbaa !4
  %40 = load ptr, ptr %7, align 8, !tbaa !20
  %41 = call ptr @_locale_textdomain_impl(ptr noundef %39, ptr noundef %40)
  store ptr %41, ptr %6, align 8, !tbaa !4
  br label %42

42:                                               ; preds = %38, %32, %35
  %43 = load ptr, ptr %6, align 8, !tbaa !4
  store ptr %43, ptr %3, align 8
  store i32 1, ptr %9, align 4
  br label %44

44:                                               ; preds = %42, %32
  call void @llvm.lifetime.end.p0(i64 8, ptr %7) #9
  call void @llvm.lifetime.end.p0(i64 8, ptr %6) #9
  %45 = load ptr, ptr %3, align 8
  ret ptr %45
}