; Function Attrs: nounwind uwtable
define internal ptr @_locale_textdomain(ptr readnone captures(none) %0, ptr noundef %1) #0 {
  %3 = alloca i64, align 8
  %4 = icmp eq ptr %1, @_Py_NoneStruct
  br i1 %4, label %19, label %5

5:                                                ; preds = %2
  %6 = getelementptr i8, ptr %1, i64 8
  %.val = load ptr, ptr %6, align 8, !tbaa !12
  %7 = getelementptr i8, ptr %.val, i64 168
  %.val17 = load i64, ptr %7, align 8, !tbaa !15
  %8 = and i64 %.val17, 268435456
  %.not = icmp eq i64 %8, 0
  br i1 %.not, label %18, label %9

9:                                                ; preds = %5
  call void @llvm.lifetime.start.p0(i64 8, ptr nonnull %3) #8
  %10 = call ptr @PyUnicode_AsUTF8AndSize(ptr noundef %1, ptr noundef nonnull %3) #8
  %11 = icmp eq ptr %10, null
  br i1 %11, label %.thread, label %12

12:                                               ; preds = %9
  %13 = call i64 @strlen(ptr noundef nonnull dereferenceable(1) %10) #9
  %14 = load i64, ptr %3, align 8, !tbaa !25
  %.not15 = icmp eq i64 %13, %14
  br i1 %.not15, label %17, label %15

15:                                               ; preds = %12
  %16 = load ptr, ptr @PyExc_ValueError, align 8, !tbaa !10
  call void @PyErr_SetString(ptr noundef %16, ptr noundef nonnull @.str.14) #8
  br label %.thread

.thread:                                          ; preds = %15, %9
  call void @llvm.lifetime.end.p0(i64 8, ptr nonnull %3) #8
  br label %_locale_textdomain_impl.exit

17:                                               ; preds = %12
  call void @llvm.lifetime.end.p0(i64 8, ptr nonnull %3) #8
  br label %19

18:                                               ; preds = %5
  tail call void @_PyArg_BadArgument(ptr noundef nonnull @.str.9, ptr noundef nonnull @.str.40, ptr noundef nonnull @.str.16, ptr noundef %1) #8
  br label %_locale_textdomain_impl.exit

19:                                               ; preds = %17, %2
  %.010 = phi ptr [ %10, %17 ], [ null, %2 ]
  %20 = call ptr @textdomain(ptr noundef %.010) #8
  %.not.i = icmp eq ptr %20, null
  br i1 %.not.i, label %21, label %24

21:                                               ; preds = %19
  %22 = load ptr, ptr @PyExc_OSError, align 8, !tbaa !10
  %23 = call ptr @PyErr_SetFromErrno(ptr noundef %22) #8
  br label %_locale_textdomain_impl.exit

24:                                               ; preds = %19
  %25 = call ptr @PyUnicode_DecodeLocale(ptr noundef nonnull %20, ptr noundef null) #8
  br label %_locale_textdomain_impl.exit

_locale_textdomain_impl.exit:                     ; preds = %24, %21, %.thread, %18
  %.011 = phi ptr [ null, %18 ], [ null, %.thread ], [ %25, %24 ], [ null, %21 ]
  ret ptr %.011
}